; ModuleID = '38/1587.c'
source_filename = "38/1587.c"
target datalayout = "e-m:e-p270:32:32-p271:32:32-p272:64:64-i64:64-f80:128-n8:16:32:64-S128"
target triple = "x86_64-pc-linux-gnu"

@.str = private unnamed_addr constant [3 x i8] c"%d\00", align 1
@.str.1 = private unnamed_addr constant [4 x i8] c"%lf\00", align 1
@.str.2 = private unnamed_addr constant [7 x i8] c"%.5lf\0A\00", align 1

; Function Attrs: noinline nounwind uwtable
define dso_local i32 @main() #0 {
  %1 = alloca i32, align 4
  %2 = alloca i32, align 4
  %3 = alloca i32, align 4
  %4 = alloca double*, align 8
  %5 = alloca double, align 8
  %6 = alloca double, align 8
  %7 = alloca double, align 8
  %8 = alloca i32, align 4
  %9 = alloca i32, align 4
  store i32 0, i32* %1, align 4
  %10 = call i32 (i8*, ...) @__isoc99_scanf(i8* getelementptr inbounds ([3 x i8], [3 x i8]* @.str, i64 0, i64 0), i32* %2)
  store i32 0, i32* %8, align 4
  br label %11

11:                                               ; preds = %79, %0
  %12 = load i32, i32* %8, align 4
  %13 = load i32, i32* %2, align 4
  %14 = icmp slt i32 %12, %13
  br i1 %14, label %15, label %82

15:                                               ; preds = %11
  store double 0.000000e+00, double* %5, align 8
  store double 0.000000e+00, double* %6, align 8
  store double 0.000000e+00, double* %7, align 8
  %16 = call i32 (i8*, ...) @__isoc99_scanf(i8* getelementptr inbounds ([3 x i8], [3 x i8]* @.str, i64 0, i64 0), i32* %3)
  %17 = load i32, i32* %3, align 4
  %18 = sext i32 %17 to i64
  %19 = mul i64 8, %18
  %20 = call noalias i8* @malloc(i64 %19) #3
  %21 = bitcast i8* %20 to double*
  store double* %21, double** %4, align 8
  store i32 0, i32* %9, align 4
  br label %22

22:                                               ; preds = %42, %15
  %23 = load i32, i32* %9, align 4
  %24 = load i32, i32* %3, align 4
  %25 = icmp slt i32 %23, %24
  br i1 %25, label %26, label %45

26:                                               ; preds = %22
  %27 = load double*, double** %4, align 8
  %28 = load i32, i32* %9, align 4
  %29 = sext i32 %28 to i64
  %30 = getelementptr inbounds double, double* %27, i64 %29
  %31 = call i32 (i8*, ...) @__isoc99_scanf(i8* getelementptr inbounds ([4 x i8], [4 x i8]* @.str.1, i64 0, i64 0), double* %30)
  %32 = load double, double* %7, align 8
  %33 = load double*, double** %4, align 8
  %34 = load i32, i32* %9, align 4
  %35 = sext i32 %34 to i64
  %36 = getelementptr inbounds double, double* %33, i64 %35
  %37 = load double, double* %36, align 8
  %38 = load i32, i32* %3, align 4
  %39 = sitofp i32 %38 to double
  %40 = fdiv double %37, %39
  %41 = fadd double %32, %40
  store double %41, double* %7, align 8
  br label %42

42:                                               ; preds = %26
  %43 = load i32, i32* %9, align 4
  %44 = add nsw i32 %43, 1
  store i32 %44, i32* %9, align 4
  br label %22

45:                                               ; preds = %22
  store i32 0, i32* %9, align 4
  br label %46

46:                                               ; preds = %68, %45
  %47 = load i32, i32* %9, align 4
  %48 = load i32, i32* %3, align 4
  %49 = icmp slt i32 %47, %48
  br i1 %49, label %50, label %71

50:                                               ; preds = %46
  %51 = load double, double* %6, align 8
  %52 = load double*, double** %4, align 8
  %53 = load i32, i32* %9, align 4
  %54 = sext i32 %53 to i64
  %55 = getelementptr inbounds double, double* %52, i64 %54
  %56 = load double, double* %55, align 8
  %57 = load double, double* %7, align 8
  %58 = fsub double %56, %57
  %59 = load double*, double** %4, align 8
  %60 = load i32, i32* %9, align 4
  %61 = sext i32 %60 to i64
  %62 = getelementptr inbounds double, double* %59, i64 %61
  %63 = load double, double* %62, align 8
  %64 = load double, double* %7, align 8
  %65 = fsub double %63, %64
  %66 = fmul double %58, %65
  %67 = fadd double %51, %66
  store double %67, double* %6, align 8
  br label %68

68:                                               ; preds = %50
  %69 = load i32, i32* %9, align 4
  %70 = add nsw i32 %69, 1
  store i32 %70, i32* %9, align 4
  br label %46

71:                                               ; preds = %46
  %72 = load double, double* %6, align 8
  %73 = load i32, i32* %3, align 4
  %74 = sitofp i32 %73 to double
  %75 = fdiv double %72, %74
  %76 = call double @sqrt(double %75) #3
  store double %76, double* %5, align 8
  %77 = load double, double* %5, align 8
  %78 = call i32 (i8*, ...) @printf(i8* getelementptr inbounds ([7 x i8], [7 x i8]* @.str.2, i64 0, i64 0), double %77)
  br label %79

79:                                               ; preds = %71
  %80 = load i32, i32* %8, align 4
  %81 = add nsw i32 %80, 1
  store i32 %81, i32* %8, align 4
  br label %11

82:                                               ; preds = %11
  %83 = load i32, i32* %1, align 4
  ret i32 %83
}

declare dso_local i32 @__isoc99_scanf(i8*, ...) #1

; Function Attrs: nounwind
declare dso_local noalias i8* @malloc(i64) #2

; Function Attrs: nounwind
declare dso_local double @sqrt(double) #2

declare dso_local i32 @printf(i8*, ...) #1


!llvm.module.flags = !{!0}
!llvm.ident = !{!1}

!0 = !{i32 1, !"wchar_size", i32 4}
!1 = !{!"clang version 10.0.0-4ubuntu1 "}
